target datalayout = "e-m:e-p270:32:32-p271:32:32-p272:64:64-i64:64-i128:128-f80:128-n8:16:32:64-S128"
target triple = "x86_64-pc-linux-gnu"

%struct.expert_field = type { i32, i32 }

@hf_ieee802154_hie_time_correction = internal global i32 0, align 4
@hf_ieee802154_hie_time_correction_time_sync_info = internal global i32 0, align 4
@ett_ieee802154_header_ie = internal global i32 0, align 4
@ett_ieee802154_hie_time_correction = internal global i32 0, align 4
@ei_ieee802154_time_correction_error = internal global %struct.expert_field zeroinitializer, align 4
@dissect_hie_time_correction.fields = internal constant [3 x ptr] [ptr @hf_ieee802154_hie_time_correction_value, ptr @hf_ieee802154_nack, ptr null], align 16
@.str.1195 = private unnamed_addr constant [7 x i8] c": NACK\00", align 1

; Function Attrs: null_pointer_is_valid sspstrong uwtable
define internal i32 @dissect_hie_time_correction(ptr noundef %0, ptr noundef %1, ptr noundef %2, ptr noundef %3) #0 {
  %5 = alloca ptr, align 8
  %6 = alloca ptr, align 8
  %7 = alloca ptr, align 8
  %8 = alloca ptr, align 8
  %9 = alloca ptr, align 8
  %10 = alloca i16, align 2
  store ptr %0, ptr %5, align 8
  store ptr %1, ptr %6, align 8
  store ptr %2, ptr %7, align 8
  store ptr %3, ptr %8, align 8
  call void @llvm.lifetime.start.p0(i64 8, ptr %9) #17
  %11 = load ptr, ptr %5, align 8
  %12 = load ptr, ptr %7, align 8
  %13 = load i32, ptr @hf_ieee802154_hie_time_correction, align 4
  %14 = load i32, ptr @ett_ieee802154_hie_time_correction, align 4
  %15 = call ptr @ieee802154_create_hie_tree(ptr noundef %11, ptr noundef %12, i32 noundef %13, i32 noundef %14)
  store ptr %15, ptr %9, align 8
  call void @llvm.lifetime.start.p0(i64 2, ptr %10) #17
  %16 = load ptr, ptr %5, align 8
  %17 = call zeroext i16 @tvb_get_letohs(ptr noundef %16, i32 noundef 2)
  store i16 %17, ptr %10, align 2
  %18 = load ptr, ptr %9, align 8
  %19 = load ptr, ptr %5, align 8
  %20 = load i32, ptr @hf_ieee802154_hie_time_correction_time_sync_info, align 4
  %21 = load i32, ptr @ett_ieee802154_header_ie, align 4
  %22 = call ptr @proto_tree_add_bitmask_with_flags(ptr noundef %18, ptr noundef %19, i32 noundef 2, i32 noundef %20, i32 noundef %21, ptr noundef @dissect_hie_time_correction.fields, i32 noundef -2147483648, i32 noundef 0)
  %23 = load i16, ptr %10, align 2
  %24 = zext i16 %23 to i32
  %25 = and i32 %24, -36864
  %26 = icmp ne i32 %25, 0
  br i1 %26, label %27, label %32

27:                                               ; preds = %4
  %28 = load ptr, ptr %6, align 8
  %29 = load ptr, ptr %9, align 8
  %30 = call ptr @proto_tree_get_parent(ptr noundef %29)
  %31 = call ptr @expert_add_info(ptr noundef %28, ptr noundef %30, ptr noundef @ei_ieee802154_time_correction_error)
  br label %32

32:                                               ; preds = %27, %4
  %33 = load i16, ptr %10, align 2
  %34 = zext i16 %33 to i32
  %35 = and i32 %34, 32768
  %36 = icmp ne i32 %35, 0
  br i1 %36, label %37, label %40

37:                                               ; preds = %32
  %38 = load ptr, ptr %7, align 8
  %39 = call ptr @proto_tree_get_parent(ptr noundef %38)
  call void (ptr, ptr, ...) @proto_item_append_text(ptr noundef %39, ptr noundef @.str.1195)
  br label %40

40:                                               ; preds = %37, %32
  call void @llvm.lifetime.end.p0(i64 2, ptr %10) #17
  call void @llvm.lifetime.end.p0(i64 8, ptr %9) #17
  ret i32 4
}