; Function Attrs: null_pointer_is_valid sspstrong uwtable
define internal noundef i32 @dissect_hie_time_correction(ptr noundef %0, ptr noundef %1, ptr noundef %2, ptr readnone captures(none) %3) #0 {
  %5 = load i32, ptr @hf_ieee802154_hie_time_correction, align 4
  %6 = load i32, ptr @ett_ieee802154_hie_time_correction, align 4
  %7 = tail call ptr @ieee802154_create_hie_tree(ptr noundef %0, ptr noundef %2, i32 noundef %5, i32 noundef %6)
  %8 = tail call zeroext i16 @tvb_get_letohs(ptr noundef %0, i32 noundef 2)
  %9 = load i32, ptr @hf_ieee802154_hie_time_correction_time_sync_info, align 4
  %10 = load i32, ptr @ett_ieee802154_header_ie, align 4
  %11 = tail call ptr @proto_tree_add_bitmask_with_flags(ptr noundef %7, ptr noundef %0, i32 noundef 2, i32 noundef %9, i32 noundef %10, ptr noundef nonnull @dissect_hie_time_correction.fields, i32 noundef -2147483648, i32 noundef 0)
  %12 = and i16 %8, 28672
  %.not = icmp eq i16 %12, 0
  br i1 %.not, label %16, label %13

13:                                               ; preds = %4
  %14 = tail call ptr @proto_tree_get_parent(ptr noundef %7)
  %15 = tail call ptr @expert_add_info(ptr noundef %1, ptr noundef %14, ptr noundef nonnull @ei_ieee802154_time_correction_error)
  br label %16

16:                                               ; preds = %13, %4
  %.not9 = icmp sgt i16 %8, -1
  br i1 %.not9, label %19, label %17

17:                                               ; preds = %16
  %18 = tail call ptr @proto_tree_get_parent(ptr noundef %2)
  tail call void (ptr, ptr, ...) @proto_item_append_text(ptr noundef %18, ptr noundef nonnull @.str.1195)
  br label %19

19:                                               ; preds = %17, %16
  ret i32 4
}